target datalayout = "e-m:e-p270:32:32-p271:32:32-p272:64:64-i64:64-i128:128-f80:128-n8:16:32:64-S128"
target triple = "x86_64-pc-linux-gnu"

%struct.FuncState = type { ptr, ptr, ptr, ptr, ptr, ptr, i32, i32, i32, i32, i32, i32, i16, i8, [60 x %struct.upvaldesc], [200 x i16] }
%struct.upvaldesc = type { i8, i8 }
%struct.LexState = type { i32, i32, i32, %struct.Token, %struct.Token, ptr, ptr, ptr, ptr, ptr, i8 }
%struct.Token = type { i32, %union.SemInfo }
%union.SemInfo = type { double }
%struct.expdesc = type { i32, %union.anon, i32, i32 }
%union.anon = type { double }
%struct.anon = type { i32, i32 }

; Function Attrs: nounwind uwtable
define internal void @freereg(ptr noundef %0, i32 noundef %1) #0 {
  %3 = alloca ptr, align 8
  %4 = alloca i32, align 4
  store ptr %0, ptr %3, align 8, !tbaa !4
  store i32 %1, ptr %4, align 4, !tbaa !9
  %5 = load i32, ptr %4, align 4, !tbaa !9
  %6 = and i32 %5, 256
  %7 = icmp ne i32 %6, 0
  br i1 %7, label %20, label %8

8:                                                ; preds = %2
  %9 = load i32, ptr %4, align 4, !tbaa !9
  %10 = load ptr, ptr %3, align 8, !tbaa !4
  %11 = getelementptr inbounds nuw %struct.FuncState, ptr %10, i32 0, i32 13
  %12 = load i8, ptr %11, align 2, !tbaa !20
  %13 = zext i8 %12 to i32
  %14 = icmp sge i32 %9, %13
  br i1 %14, label %15, label %20

15:                                               ; preds = %8
  %16 = load ptr, ptr %3, align 8, !tbaa !4
  %17 = getelementptr inbounds nuw %struct.FuncState, ptr %16, i32 0, i32 9
  %18 = load i32, ptr %17, align 4, !tbaa !42
  %19 = add nsw i32 %18, -1
  store i32 %19, ptr %17, align 4, !tbaa !42
  br label %20

20:                                               ; preds = %15, %8, %2
  ret void
}

; Function Attrs: nounwind uwtable
define internal i32 @isnumeral(ptr noundef %0) #0 {
  %2 = alloca ptr, align 8
  store ptr %0, ptr %2, align 8, !tbaa !60
  %3 = load ptr, ptr %2, align 8, !tbaa !60
  %4 = getelementptr inbounds nuw %struct.expdesc, ptr %3, i32 0, i32 0
  %5 = load i32, ptr %4, align 8, !tbaa !62
  %6 = icmp eq i32 %5, 5
  br i1 %6, label %7, label %17

7:                                                ; preds = %1
  %8 = load ptr, ptr %2, align 8, !tbaa !60
  %9 = getelementptr inbounds nuw %struct.expdesc, ptr %8, i32 0, i32 2
  %10 = load i32, ptr %9, align 8, !tbaa !64
  %11 = icmp eq i32 %10, -1
  br i1 %11, label %12, label %17

12:                                               ; preds = %7
  %13 = load ptr, ptr %2, align 8, !tbaa !60
  %14 = getelementptr inbounds nuw %struct.expdesc, ptr %13, i32 0, i32 3
  %15 = load i32, ptr %14, align 4, !tbaa !65
  %16 = icmp eq i32 %15, -1
  br label %17

17:                                               ; preds = %12, %7, %1
  %18 = phi i1 [ false, %7 ], [ false, %1 ], [ %16, %12 ]
  %19 = zext i1 %18 to i32
  ret i32 %19
}

; Function Attrs: nounwind uwtable
define hidden i32 @luaK_codeABC(ptr noundef %0, i32 noundef %1, i32 noundef %2, i32 noundef %3, i32 noundef %4) #0 {
  %6 = alloca ptr, align 8
  %7 = alloca i32, align 4
  %8 = alloca i32, align 4
  %9 = alloca i32, align 4
  %10 = alloca i32, align 4
  store ptr %0, ptr %6, align 8, !tbaa !4
  store i32 %1, ptr %7, align 4, !tbaa !9
  store i32 %2, ptr %8, align 4, !tbaa !9
  store i32 %3, ptr %9, align 4, !tbaa !9
  store i32 %4, ptr %10, align 4, !tbaa !9
  %11 = load ptr, ptr %6, align 8, !tbaa !4
  %12 = load i32, ptr %7, align 4, !tbaa !9
  %13 = shl i32 %12, 0
  %14 = load i32, ptr %8, align 4, !tbaa !9
  %15 = shl i32 %14, 6
  %16 = or i32 %13, %15
  %17 = load i32, ptr %9, align 4, !tbaa !9
  %18 = shl i32 %17, 23
  %19 = or i32 %16, %18
  %20 = load i32, ptr %10, align 4, !tbaa !9
  %21 = shl i32 %20, 14
  %22 = or i32 %19, %21
  %23 = load ptr, ptr %6, align 8, !tbaa !4
  %24 = getelementptr inbounds nuw %struct.FuncState, ptr %23, i32 0, i32 3
  %25 = load ptr, ptr %24, align 8, !tbaa !32
  %26 = getelementptr inbounds nuw %struct.LexState, ptr %25, i32 0, i32 2
  %27 = load i32, ptr %26, align 8, !tbaa !33
  %28 = call i32 @luaK_code(ptr noundef %11, i32 noundef %22, i32 noundef %27)
  ret i32 %28
}

; Function Attrs: nounwind uwtable
define internal void @freeexp(ptr noundef %0, ptr noundef %1) #0 {
  %3 = alloca ptr, align 8
  %4 = alloca ptr, align 8
  store ptr %0, ptr %3, align 8, !tbaa !4
  store ptr %1, ptr %4, align 8, !tbaa !60
  %5 = load ptr, ptr %4, align 8, !tbaa !60
  %6 = getelementptr inbounds nuw %struct.expdesc, ptr %5, i32 0, i32 0
  %7 = load i32, ptr %6, align 8, !tbaa !62
  %8 = icmp eq i32 %7, 12
  br i1 %8, label %9, label %15

9:                                                ; preds = %2
  %10 = load ptr, ptr %3, align 8, !tbaa !4
  %11 = load ptr, ptr %4, align 8, !tbaa !60
  %12 = getelementptr inbounds nuw %struct.expdesc, ptr %11, i32 0, i32 1
  %13 = getelementptr inbounds nuw %struct.anon, ptr %12, i32 0, i32 0
  %14 = load i32, ptr %13, align 8, !tbaa !46
  call void @freereg(ptr noundef %10, i32 noundef %14)
  br label %15

15:                                               ; preds = %9, %2
  ret void
}

; Function Attrs: nounwind uwtable
define internal i32 @constfolding(i32 noundef %0, ptr noundef %1, ptr noundef %2) #0 {
  %4 = alloca i32, align 4
  %5 = alloca i32, align 4
  %6 = alloca ptr, align 8
  %7 = alloca ptr, align 8
  %8 = alloca double, align 8
  %9 = alloca double, align 8
  %10 = alloca double, align 8
  %11 = alloca i32, align 4
  store i32 %0, ptr %5, align 4, !tbaa !9
  store ptr %1, ptr %6, align 8, !tbaa !60
  store ptr %2, ptr %7, align 8, !tbaa !60
  call void @llvm.lifetime.start.p0(i64 8, ptr %8) #6
  call void @llvm.lifetime.start.p0(i64 8, ptr %9) #6
  call void @llvm.lifetime.start.p0(i64 8, ptr %10) #6
  %12 = load ptr, ptr %6, align 8, !tbaa !60
  %13 = call i32 @isnumeral(ptr noundef %12)
  %14 = icmp ne i32 %13, 0
  br i1 %14, label %15, label %19

15:                                               ; preds = %3
  %16 = load ptr, ptr %7, align 8, !tbaa !60
  %17 = call i32 @isnumeral(ptr noundef %16)
  %18 = icmp ne i32 %17, 0
  br i1 %18, label %20, label %19

19:                                               ; preds = %15, %3
  store i32 0, ptr %4, align 4
  store i32 1, ptr %11, align 4
  br label %79

20:                                               ; preds = %15
  %21 = load ptr, ptr %6, align 8, !tbaa !60
  %22 = getelementptr inbounds nuw %struct.expdesc, ptr %21, i32 0, i32 1
  %23 = load double, ptr %22, align 8, !tbaa !46
  store double %23, ptr %8, align 8, !tbaa !58
  %24 = load ptr, ptr %7, align 8, !tbaa !60
  %25 = getelementptr inbounds nuw %struct.expdesc, ptr %24, i32 0, i32 1
  %26 = load double, ptr %25, align 8, !tbaa !46
  store double %26, ptr %9, align 8, !tbaa !58
  %27 = load i32, ptr %5, align 4, !tbaa !9
  switch i32 %27, label %69 [
    i32 12, label %28
    i32 13, label %32
    i32 14, label %36
    i32 15, label %40
    i32 16, label %48
    i32 17, label %61
    i32 18, label %65
    i32 20, label %68
  ]

28:                                               ; preds = %20
  %29 = load double, ptr %8, align 8, !tbaa !58
  %30 = load double, ptr %9, align 8, !tbaa !58
  %31 = fadd double %29, %30
  store double %31, ptr %10, align 8, !tbaa !58
  br label %70

32:                                               ; preds = %20
  %33 = load double, ptr %8, align 8, !tbaa !58
  %34 = load double, ptr %9, align 8, !tbaa !58
  %35 = fsub double %33, %34
  store double %35, ptr %10, align 8, !tbaa !58
  br label %70

36:                                               ; preds = %20
  %37 = load double, ptr %8, align 8, !tbaa !58
  %38 = load double, ptr %9, align 8, !tbaa !58
  %39 = fmul double %37, %38
  store double %39, ptr %10, align 8, !tbaa !58
  br label %70

40:                                               ; preds = %20
  %41 = load double, ptr %9, align 8, !tbaa !58
  %42 = fcmp oeq double %41, 0.000000e+00
  br i1 %42, label %43, label %44

43:                                               ; preds = %40
  store i32 0, ptr %4, align 4
  store i32 1, ptr %11, align 4
  br label %79

44:                                               ; preds = %40
  %45 = load double, ptr %8, align 8, !tbaa !58
  %46 = load double, ptr %9, align 8, !tbaa !58
  %47 = fdiv double %45, %46
  store double %47, ptr %10, align 8, !tbaa !58
  br label %70

48:                                               ; preds = %20
  %49 = load double, ptr %9, align 8, !tbaa !58
  %50 = fcmp oeq double %49, 0.000000e+00
  br i1 %50, label %51, label %52

51:                                               ; preds = %48
  store i32 0, ptr %4, align 4
  store i32 1, ptr %11, align 4
  br label %79

52:                                               ; preds = %48
  %53 = load double, ptr %8, align 8, !tbaa !58
  %54 = load double, ptr %8, align 8, !tbaa !58
  %55 = load double, ptr %9, align 8, !tbaa !58
  %56 = fdiv double %54, %55
  %57 = call double @llvm.floor.f64(double %56)
  %58 = load double, ptr %9, align 8, !tbaa !58
  %59 = fneg double %57
  %60 = call double @llvm.fmuladd.f64(double %59, double %58, double %53)
  store double %60, ptr %10, align 8, !tbaa !58
  br label %70

61:                                               ; preds = %20
  %62 = load double, ptr %8, align 8, !tbaa !58
  %63 = load double, ptr %9, align 8, !tbaa !58
  %64 = call double @pow(double noundef %62, double noundef %63) #6, !tbaa !9
  store double %64, ptr %10, align 8, !tbaa !58
  br label %70

65:                                               ; preds = %20
  %66 = load double, ptr %8, align 8, !tbaa !58
  %67 = fneg double %66
  store double %67, ptr %10, align 8, !tbaa !58
  br label %70

68:                                               ; preds = %20
  store i32 0, ptr %4, align 4
  store i32 1, ptr %11, align 4
  br label %79

69:                                               ; preds = %20
  store double 0.000000e+00, ptr %10, align 8, !tbaa !58
  br label %70

70:                                               ; preds = %69, %65, %61, %52, %44, %36, %32, %28
  %71 = load double, ptr %10, align 8, !tbaa !58
  %72 = load double, ptr %10, align 8, !tbaa !58
  %73 = fcmp oeq double %71, %72
  br i1 %73, label %75, label %74

74:                                               ; preds = %70
  store i32 0, ptr %4, align 4
  store i32 1, ptr %11, align 4
  br label %79

75:                                               ; preds = %70
  %76 = load double, ptr %10, align 8, !tbaa !58
  %77 = load ptr, ptr %6, align 8, !tbaa !60
  %78 = getelementptr inbounds nuw %struct.expdesc, ptr %77, i32 0, i32 1
  store double %76, ptr %78, align 8, !tbaa !46
  store i32 1, ptr %4, align 4
  store i32 1, ptr %11, align 4
  br label %79

79:                                               ; preds = %75, %74, %68, %51, %43, %19
  call void @llvm.lifetime.end.p0(i64 8, ptr %10) #6
  call void @llvm.lifetime.end.p0(i64 8, ptr %9) #6
  call void @llvm.lifetime.end.p0(i64 8, ptr %8) #6
  %80 = load i32, ptr %4, align 4
  ret i32 %80
}

; Function Attrs: nounwind uwtable
define internal void @codearith(ptr noundef %0, i32 noundef %1, ptr noundef %2, ptr noundef %3) #0 {
  %5 = alloca ptr, align 8
  %6 = alloca i32, align 4
  %7 = alloca ptr, align 8
  %8 = alloca ptr, align 8
  %9 = alloca i32, align 4
  %10 = alloca i32, align 4
  store ptr %0, ptr %5, align 8, !tbaa !4
  store i32 %1, ptr %6, align 4, !tbaa !9
  store ptr %2, ptr %7, align 8, !tbaa !60
  store ptr %3, ptr %8, align 8, !tbaa !60
  %11 = load i32, ptr %6, align 4, !tbaa !9
  %12 = load ptr, ptr %7, align 8, !tbaa !60
  %13 = load ptr, ptr %8, align 8, !tbaa !60
  %14 = call i32 @constfolding(i32 noundef %11, ptr noundef %12, ptr noundef %13)
  %15 = icmp ne i32 %14, 0
  br i1 %15, label %16, label %17

16:                                               ; preds = %4
  br label %57

17:                                               ; preds = %4
  call void @llvm.lifetime.start.p0(i64 4, ptr %9) #6
  %18 = load i32, ptr %6, align 4, !tbaa !9
  %19 = icmp ne i32 %18, 18
  br i1 %19, label %20, label %27

20:                                               ; preds = %17
  %21 = load i32, ptr %6, align 4, !tbaa !9
  %22 = icmp ne i32 %21, 20
  br i1 %22, label %23, label %27

23:                                               ; preds = %20
  %24 = load ptr, ptr %5, align 8, !tbaa !4
  %25 = load ptr, ptr %8, align 8, !tbaa !60
  %26 = call i32 @luaK_exp2RK(ptr noundef %24, ptr noundef %25)
  br label %28

27:                                               ; preds = %20, %17
  br label %28

28:                                               ; preds = %27, %23
  %29 = phi i32 [ %26, %23 ], [ 0, %27 ]
  store i32 %29, ptr %9, align 4, !tbaa !9
  call void @llvm.lifetime.start.p0(i64 4, ptr %10) #6
  %30 = load ptr, ptr %5, align 8, !tbaa !4
  %31 = load ptr, ptr %7, align 8, !tbaa !60
  %32 = call i32 @luaK_exp2RK(ptr noundef %30, ptr noundef %31)
  store i32 %32, ptr %10, align 4, !tbaa !9
  %33 = load i32, ptr %10, align 4, !tbaa !9
  %34 = load i32, ptr %9, align 4, !tbaa !9
  %35 = icmp sgt i32 %33, %34
  br i1 %35, label %36, label %41

36:                                               ; preds = %28
  %37 = load ptr, ptr %5, align 8, !tbaa !4
  %38 = load ptr, ptr %7, align 8, !tbaa !60
  call void @freeexp(ptr noundef %37, ptr noundef %38)
  %39 = load ptr, ptr %5, align 8, !tbaa !4
  %40 = load ptr, ptr %8, align 8, !tbaa !60
  call void @freeexp(ptr noundef %39, ptr noundef %40)
  br label %46

41:                                               ; preds = %28
  %42 = load ptr, ptr %5, align 8, !tbaa !4
  %43 = load ptr, ptr %8, align 8, !tbaa !60
  call void @freeexp(ptr noundef %42, ptr noundef %43)
  %44 = load ptr, ptr %5, align 8, !tbaa !4
  %45 = load ptr, ptr %7, align 8, !tbaa !60
  call void @freeexp(ptr noundef %44, ptr noundef %45)
  br label %46

46:                                               ; preds = %41, %36
  %47 = load ptr, ptr %5, align 8, !tbaa !4
  %48 = load i32, ptr %6, align 4, !tbaa !9
  %49 = load i32, ptr %10, align 4, !tbaa !9
  %50 = load i32, ptr %9, align 4, !tbaa !9
  %51 = call i32 @luaK_codeABC(ptr noundef %47, i32 noundef %48, i32 noundef 0, i32 noundef %49, i32 noundef %50)
  %52 = load ptr, ptr %7, align 8, !tbaa !60
  %53 = getelementptr inbounds nuw %struct.expdesc, ptr %52, i32 0, i32 1
  %54 = getelementptr inbounds nuw %struct.anon, ptr %53, i32 0, i32 0
  store i32 %51, ptr %54, align 8, !tbaa !46
  %55 = load ptr, ptr %7, align 8, !tbaa !60
  %56 = getelementptr inbounds nuw %struct.expdesc, ptr %55, i32 0, i32 0
  store i32 11, ptr %56, align 8, !tbaa !62
  call void @llvm.lifetime.end.p0(i64 4, ptr %10) #6
  call void @llvm.lifetime.end.p0(i64 4, ptr %9) #6
  br label %57

57:                                               ; preds = %16, %46
  ret void
}