; Function Attrs: nounwind uwtable
define internal fastcc void @codearith(ptr noundef captures(none) %0, i32 noundef range(i32 12, 22) %1, ptr noundef captures(none) %2, ptr noundef captures(none) %3) unnamed_addr #0 {
  %5 = load i32, ptr %2, align 8, !tbaa !51
  %6 = icmp eq i32 %5, 5
  br i1 %6, label %7, label %50

7:                                                ; preds = %4
  %8 = getelementptr inbounds nuw i8, ptr %2, i64 16
  %9 = load i32, ptr %8, align 8, !tbaa !53
  %10 = icmp eq i32 %9, -1
  br i1 %10, label %isnumeral.exit.i, label %50

isnumeral.exit.i:                                 ; preds = %7
  %11 = getelementptr inbounds nuw i8, ptr %2, i64 20
  %12 = load i32, ptr %11, align 4, !tbaa !54
  %.not.i = icmp eq i32 %12, -1
  br i1 %.not.i, label %13, label %50

13:                                               ; preds = %isnumeral.exit.i
  %14 = load i32, ptr %3, align 8, !tbaa !51
  %15 = icmp eq i32 %14, 5
  br i1 %15, label %16, label %50

16:                                               ; preds = %13
  %17 = getelementptr inbounds nuw i8, ptr %3, i64 16
  %18 = load i32, ptr %17, align 8, !tbaa !53
  %19 = icmp eq i32 %18, -1
  br i1 %19, label %isnumeral.exit29.i, label %50

isnumeral.exit29.i:                               ; preds = %16
  %20 = getelementptr inbounds nuw i8, ptr %3, i64 20
  %21 = load i32, ptr %20, align 4, !tbaa !54
  %.not34.i = icmp eq i32 %21, -1
  br i1 %.not34.i, label %22, label %50

22:                                               ; preds = %isnumeral.exit29.i
  %23 = getelementptr inbounds nuw i8, ptr %2, i64 8
  %24 = load double, ptr %23, align 8, !tbaa !39
  %25 = getelementptr inbounds nuw i8, ptr %3, i64 8
  %26 = load double, ptr %25, align 8, !tbaa !39
  switch i32 %1, label %constfolding.exit [
    i32 12, label %27
    i32 13, label %29
    i32 14, label %31
    i32 15, label %33
    i32 16, label %37
    i32 17, label %44
    i32 18, label %46
    i32 20, label %.thread36
  ]

27:                                               ; preds = %22
  %28 = fadd double %24, %26
  br label %48

29:                                               ; preds = %22
  %30 = fsub double %24, %26
  br label %48

31:                                               ; preds = %22
  %32 = fmul double %24, %26
  br label %48

33:                                               ; preds = %22
  %34 = fcmp oeq double %26, 0.000000e+00
  br i1 %34, label %.thread, label %35

35:                                               ; preds = %33
  %36 = fdiv double %24, %26
  br label %48

37:                                               ; preds = %22
  %38 = fcmp oeq double %26, 0.000000e+00
  br i1 %38, label %.thread, label %39

39:                                               ; preds = %37
  %40 = fdiv double %24, %26
  %41 = tail call double @llvm.floor.f64(double %40)
  %42 = fneg double %41
  %43 = tail call double @llvm.fmuladd.f64(double %42, double %26, double %24)
  br label %48

44:                                               ; preds = %22
  %45 = tail call double @pow(double noundef %24, double noundef %26) #8, !tbaa !29
  br label %48

46:                                               ; preds = %22
  %47 = fneg double %24
  br label %48

48:                                               ; preds = %46, %44, %39, %35, %31, %29, %27
  %.0.i = phi double [ %47, %46 ], [ %45, %44 ], [ %43, %39 ], [ %36, %35 ], [ %32, %31 ], [ %30, %29 ], [ %28, %27 ]
  %49 = fcmp ord double %.0.i, 0.000000e+00
  br i1 %49, label %constfolding.exit, label %50

constfolding.exit:                                ; preds = %22, %48
  %.033.i = phi double [ %.0.i, %48 ], [ 0.000000e+00, %22 ]
  store double %.033.i, ptr %23, align 8, !tbaa !39
  br label %118

50:                                               ; preds = %isnumeral.exit29.i, %isnumeral.exit.i, %48, %7, %4, %16, %13
  switch i32 %1, label %.thread [
    i32 20, label %.thread36
    i32 18, label %.thread36
  ]

.thread:                                          ; preds = %37, %33, %50
  %51 = tail call i32 @luaK_exp2RK(ptr noundef %0, ptr noundef %3)
  br label %.thread36

.thread36:                                        ; preds = %22, %50, %50, %.thread
  %52 = phi i32 [ %51, %.thread ], [ 0, %50 ], [ 0, %50 ], [ 0, %22 ]
  %53 = tail call i32 @luaK_exp2RK(ptr noundef %0, ptr noundef nonnull %2)
  %54 = icmp sgt i32 %53, %52
  br i1 %54, label %55, label %80

55:                                               ; preds = %.thread36
  %56 = load i32, ptr %2, align 8, !tbaa !51
  %57 = icmp eq i32 %56, 12
  br i1 %57, label %58, label %freeexp.exit

58:                                               ; preds = %55
  %59 = getelementptr inbounds nuw i8, ptr %2, i64 8
  %60 = load i32, ptr %59, align 8, !tbaa !39
  %61 = and i32 %60, 256
  %.not.i.i = icmp eq i32 %61, 0
  br i1 %.not.i.i, label %62, label %freeexp.exit

62:                                               ; preds = %58
  %63 = getelementptr inbounds nuw i8, ptr %0, i64 74
  %64 = load i8, ptr %63, align 2, !tbaa !18
  %65 = zext i8 %64 to i32
  %.not3.i.i = icmp slt i32 %60, %65
  br i1 %.not3.i.i, label %freeexp.exit, label %66

66:                                               ; preds = %62
  %67 = getelementptr inbounds nuw i8, ptr %0, i64 60
  %68 = load i32, ptr %67, align 4, !tbaa !41
  %69 = add nsw i32 %68, -1
  store i32 %69, ptr %67, align 4, !tbaa !41
  br label %freeexp.exit

freeexp.exit:                                     ; preds = %55, %58, %62, %66
  %70 = load i32, ptr %3, align 8, !tbaa !51
  %71 = icmp eq i32 %70, 12
  br i1 %71, label %72, label %freeexp.exit27

72:                                               ; preds = %freeexp.exit
  %73 = getelementptr inbounds nuw i8, ptr %3, i64 8
  %74 = load i32, ptr %73, align 8, !tbaa !39
  %75 = and i32 %74, 256
  %.not.i.i25 = icmp eq i32 %75, 0
  br i1 %.not.i.i25, label %76, label %freeexp.exit27

76:                                               ; preds = %72
  %77 = getelementptr inbounds nuw i8, ptr %0, i64 74
  %78 = load i8, ptr %77, align 2, !tbaa !18
  %79 = zext i8 %78 to i32
  %.not3.i.i26 = icmp slt i32 %74, %79
  br i1 %.not3.i.i26, label %freeexp.exit27, label %freeexp.exit27.sink.split

80:                                               ; preds = %.thread36
  %81 = load i32, ptr %3, align 8, !tbaa !51
  %82 = icmp eq i32 %81, 12
  br i1 %82, label %83, label %freeexp.exit30

83:                                               ; preds = %80
  %84 = getelementptr inbounds nuw i8, ptr %3, i64 8
  %85 = load i32, ptr %84, align 8, !tbaa !39
  %86 = and i32 %85, 256
  %.not.i.i28 = icmp eq i32 %86, 0
  br i1 %.not.i.i28, label %87, label %freeexp.exit30

87:                                               ; preds = %83
  %88 = getelementptr inbounds nuw i8, ptr %0, i64 74
  %89 = load i8, ptr %88, align 2, !tbaa !18
  %90 = zext i8 %89 to i32
  %.not3.i.i29 = icmp slt i32 %85, %90
  br i1 %.not3.i.i29, label %freeexp.exit30, label %91

91:                                               ; preds = %87
  %92 = getelementptr inbounds nuw i8, ptr %0, i64 60
  %93 = load i32, ptr %92, align 4, !tbaa !41
  %94 = add nsw i32 %93, -1
  store i32 %94, ptr %92, align 4, !tbaa !41
  br label %freeexp.exit30

freeexp.exit30:                                   ; preds = %80, %83, %87, %91
  %95 = load i32, ptr %2, align 8, !tbaa !51
  %96 = icmp eq i32 %95, 12
  br i1 %96, label %97, label %freeexp.exit27

97:                                               ; preds = %freeexp.exit30
  %98 = getelementptr inbounds nuw i8, ptr %2, i64 8
  %99 = load i32, ptr %98, align 8, !tbaa !39
  %100 = and i32 %99, 256
  %.not.i.i31 = icmp eq i32 %100, 0
  br i1 %.not.i.i31, label %101, label %freeexp.exit27

101:                                              ; preds = %97
  %102 = getelementptr inbounds nuw i8, ptr %0, i64 74
  %103 = load i8, ptr %102, align 2, !tbaa !18
  %104 = zext i8 %103 to i32
  %.not3.i.i32 = icmp slt i32 %99, %104
  br i1 %.not3.i.i32, label %freeexp.exit27, label %freeexp.exit27.sink.split

freeexp.exit27.sink.split:                        ; preds = %101, %76
  %105 = getelementptr inbounds nuw i8, ptr %0, i64 60
  %106 = load i32, ptr %105, align 4, !tbaa !41
  %107 = add nsw i32 %106, -1
  store i32 %107, ptr %105, align 4, !tbaa !41
  br label %freeexp.exit27

freeexp.exit27:                                   ; preds = %freeexp.exit27.sink.split, %101, %97, %freeexp.exit30, %76, %72, %freeexp.exit
  %108 = shl i32 %53, 23
  %109 = shl i32 %52, 14
  %110 = or i32 %109, %108
  %111 = or disjoint i32 %110, %1
  %112 = getelementptr inbounds nuw i8, ptr %0, i64 24
  %113 = load ptr, ptr %112, align 8, !tbaa !30
  %114 = getelementptr inbounds nuw i8, ptr %113, i64 8
  %115 = load i32, ptr %114, align 8, !tbaa !31
  %116 = tail call fastcc i32 @luaK_code(ptr noundef %0, i32 noundef %111, i32 noundef %115)
  %117 = getelementptr inbounds nuw i8, ptr %2, i64 8
  store i32 %116, ptr %117, align 8, !tbaa !39
  store i32 11, ptr %2, align 8, !tbaa !51
  br label %118

118:                                              ; preds = %constfolding.exit, %freeexp.exit27
  ret void
}